target datalayout = "e-m:e-p270:32:32-p271:32:32-p272:64:64-i64:64-i128:128-f80:128-n8:16:32:64-S128"
target triple = "x86_64-pc-linux-gnu"

; Function Attrs: nounwind uwtable
define void @ff_block_permute(ptr noundef %0, ptr noundef %1, ptr noundef %2, i32 noundef %3) #1 {
  %5 = alloca ptr, align 8
  %6 = alloca ptr, align 8
  %7 = alloca ptr, align 8
  %8 = alloca i32, align 4
  %9 = alloca i32, align 4
  %10 = alloca [64 x i16], align 16
  %11 = alloca i32, align 4
  %12 = alloca i32, align 4
  %13 = alloca i32, align 4
  %14 = alloca i32, align 4
  store ptr %0, ptr %5, align 8, !tbaa !11
  store ptr %1, ptr %6, align 8, !tbaa !86
  store ptr %2, ptr %7, align 8, !tbaa !86
  store i32 %3, ptr %8, align 4, !tbaa !13
  call void @llvm.lifetime.start.p0(i64 4, ptr %9) #14
  call void @llvm.lifetime.start.p0(i64 128, ptr %10) #14
  %15 = load i32, ptr %8, align 4, !tbaa !13
  %16 = icmp sle i32 %15, 0
  br i1 %16, label %17, label %18

17:                                               ; preds = %4
  store i32 1, ptr %11, align 4
  br label %75

18:                                               ; preds = %4
  store i32 0, ptr %9, align 4, !tbaa !13
  br label %19

19:                                               ; preds = %42, %18
  %20 = load i32, ptr %9, align 4, !tbaa !13
  %21 = load i32, ptr %8, align 4, !tbaa !13
  %22 = icmp sle i32 %20, %21
  br i1 %22, label %23, label %45

23:                                               ; preds = %19
  call void @llvm.lifetime.start.p0(i64 4, ptr %12) #14
  %24 = load ptr, ptr %7, align 8, !tbaa !86
  %25 = load i32, ptr %9, align 4, !tbaa !13
  %26 = sext i32 %25 to i64
  %27 = getelementptr inbounds i8, ptr %24, i64 %26
  %28 = load i8, ptr %27, align 1, !tbaa !52
  %29 = zext i8 %28 to i32
  store i32 %29, ptr %12, align 4, !tbaa !13
  %30 = load ptr, ptr %5, align 8, !tbaa !11
  %31 = load i32, ptr %12, align 4, !tbaa !13
  %32 = sext i32 %31 to i64
  %33 = getelementptr inbounds i16, ptr %30, i64 %32
  %34 = load i16, ptr %33, align 2, !tbaa !54
  %35 = load i32, ptr %12, align 4, !tbaa !13
  %36 = sext i32 %35 to i64
  %37 = getelementptr inbounds [64 x i16], ptr %10, i64 0, i64 %36
  store i16 %34, ptr %37, align 2, !tbaa !54
  %38 = load ptr, ptr %5, align 8, !tbaa !11
  %39 = load i32, ptr %12, align 4, !tbaa !13
  %40 = sext i32 %39 to i64
  %41 = getelementptr inbounds i16, ptr %38, i64 %40
  store i16 0, ptr %41, align 2, !tbaa !54
  call void @llvm.lifetime.end.p0(i64 4, ptr %12) #14
  br label %42

42:                                               ; preds = %23
  %43 = load i32, ptr %9, align 4, !tbaa !13
  %44 = add nsw i32 %43, 1
  store i32 %44, ptr %9, align 4, !tbaa !13
  br label %19, !llvm.loop !420

45:                                               ; preds = %19
  store i32 0, ptr %9, align 4, !tbaa !13
  br label %46

46:                                               ; preds = %71, %45
  %47 = load i32, ptr %9, align 4, !tbaa !13
  %48 = load i32, ptr %8, align 4, !tbaa !13
  %49 = icmp sle i32 %47, %48
  br i1 %49, label %50, label %74

50:                                               ; preds = %46
  call void @llvm.lifetime.start.p0(i64 4, ptr %13) #14
  %51 = load ptr, ptr %7, align 8, !tbaa !86
  %52 = load i32, ptr %9, align 4, !tbaa !13
  %53 = sext i32 %52 to i64
  %54 = getelementptr inbounds i8, ptr %51, i64 %53
  %55 = load i8, ptr %54, align 1, !tbaa !52
  %56 = zext i8 %55 to i32
  store i32 %56, ptr %13, align 4, !tbaa !13
  call void @llvm.lifetime.start.p0(i64 4, ptr %14) #14
  %57 = load ptr, ptr %6, align 8, !tbaa !86
  %58 = load i32, ptr %13, align 4, !tbaa !13
  %59 = sext i32 %58 to i64
  %60 = getelementptr inbounds i8, ptr %57, i64 %59
  %61 = load i8, ptr %60, align 1, !tbaa !52
  %62 = zext i8 %61 to i32
  store i32 %62, ptr %14, align 4, !tbaa !13
  %63 = load i32, ptr %13, align 4, !tbaa !13
  %64 = sext i32 %63 to i64
  %65 = getelementptr inbounds [64 x i16], ptr %10, i64 0, i64 %64
  %66 = load i16, ptr %65, align 2, !tbaa !54
  %67 = load ptr, ptr %5, align 8, !tbaa !11
  %68 = load i32, ptr %14, align 4, !tbaa !13
  %69 = sext i32 %68 to i64
  %70 = getelementptr inbounds i16, ptr %67, i64 %69
  store i16 %66, ptr %70, align 2, !tbaa !54
  call void @llvm.lifetime.end.p0(i64 4, ptr %14) #14
  call void @llvm.lifetime.end.p0(i64 4, ptr %13) #14
  br label %71

71:                                               ; preds = %50
  %72 = load i32, ptr %9, align 4, !tbaa !13
  %73 = add nsw i32 %72, 1
  store i32 %73, ptr %9, align 4, !tbaa !13
  br label %46, !llvm.loop !421

74:                                               ; preds = %46
  store i32 0, ptr %11, align 4
  br label %75

75:                                               ; preds = %74, %17
  call void @llvm.lifetime.end.p0(i64 128, ptr %10) #14
  call void @llvm.lifetime.end.p0(i64 4, ptr %9) #14
  %76 = load i32, ptr %11, align 4
  switch i32 %76, label %78 [
    i32 0, label %77
    i32 1, label %77
  ]

77:                                               ; preds = %75, %75
  ret void

78:                                               ; preds = %75
  unreachable
}