; Function Attrs: nofree norecurse nosync nounwind memory(argmem: readwrite) uwtable
define void @ff_block_permute(ptr noundef captures(none) %0, ptr noundef readonly captures(none) %1, ptr noundef readonly captures(none) %2, i32 noundef %3) local_unnamed_addr #10 {
  %5 = alloca [64 x i16], align 16
  call void @llvm.lifetime.start.p0(i64 128, ptr nonnull %5) #16
  %6 = icmp slt i32 %3, 1
  br i1 %6, label %.loopexit, label %.preheader22.preheader

.preheader22.preheader:                           ; preds = %4
  %7 = add nuw i32 %3, 1
  %wide.trip.count = zext i32 %7 to i64
  br label %.preheader22

.preheader22:                                     ; preds = %.preheader22.preheader, %.preheader22
  %indvars.iv = phi i64 [ 0, %.preheader22.preheader ], [ %indvars.iv.next, %.preheader22 ]
  %8 = getelementptr inbounds nuw i8, ptr %2, i64 %indvars.iv
  %9 = load i8, ptr %8, align 1, !tbaa !46
  %10 = zext i8 %9 to i64
  %11 = getelementptr inbounds nuw i16, ptr %0, i64 %10
  %12 = load i16, ptr %11, align 2, !tbaa !52
  %13 = getelementptr inbounds nuw [64 x i16], ptr %5, i64 0, i64 %10
  store i16 %12, ptr %13, align 2, !tbaa !52
  store i16 0, ptr %11, align 2, !tbaa !52
  %indvars.iv.next = add nuw nsw i64 %indvars.iv, 1
  %exitcond.not = icmp eq i64 %indvars.iv.next, %wide.trip.count
  br i1 %exitcond.not, label %.lr.ph, label %.preheader22, !llvm.loop !89

.lr.ph:                                           ; preds = %.preheader22, %.lr.ph
  %indvars.iv27 = phi i64 [ %indvars.iv.next28, %.lr.ph ], [ 0, %.preheader22 ]
  %14 = getelementptr inbounds nuw i8, ptr %2, i64 %indvars.iv27
  %15 = load i8, ptr %14, align 1, !tbaa !46
  %16 = zext i8 %15 to i64
  %17 = getelementptr inbounds nuw i8, ptr %1, i64 %16
  %18 = load i8, ptr %17, align 1, !tbaa !46
  %19 = getelementptr inbounds nuw [64 x i16], ptr %5, i64 0, i64 %16
  %20 = load i16, ptr %19, align 2, !tbaa !52
  %21 = zext i8 %18 to i64
  %22 = getelementptr inbounds nuw i16, ptr %0, i64 %21
  store i16 %20, ptr %22, align 2, !tbaa !52
  %indvars.iv.next28 = add nuw nsw i64 %indvars.iv27, 1
  %exitcond31.not = icmp eq i64 %indvars.iv.next28, %wide.trip.count
  br i1 %exitcond31.not, label %.loopexit, label %.lr.ph, !llvm.loop !90

.loopexit:                                        ; preds = %.lr.ph, %4
  call void @llvm.lifetime.end.p0(i64 128, ptr nonnull %5) #16
  ret void
}